; Function Attrs: mustprogress nofree norecurse nosync nounwind willreturn memory(read, inaccessiblemem: none) uwtable
define i32 @Abc_FlowRetime_GetLag(ptr noundef readonly captures(none) %0) local_unnamed_addr #10 {
  %2 = load ptr, ptr @pManMR, align 8, !tbaa !3
  %3 = getelementptr inbounds nuw i8, ptr %2, i64 96
  %4 = load ptr, ptr %3, align 8, !tbaa !70
  %5 = getelementptr i8, ptr %0, i64 16
  %.val = load i32, ptr %5, align 8, !tbaa !80
  %6 = getelementptr i8, ptr %4, i64 8
  %.val1 = load ptr, ptr %6, align 8, !tbaa !67
  %7 = sext i32 %.val to i64
  %8 = getelementptr inbounds i32, ptr %.val1, i64 %7
  %9 = load i32, ptr %8, align 4, !tbaa !48
  ret i32 %9
}